target datalayout = "e-m:e-p270:32:32-p271:32:32-p272:64:64-i64:64-i128:128-f80:128-n8:16:32:64-S128"
target triple = "x86_64-pc-linux-gnu"

%struct.test_enum = type { ptr, i32 }

@.str.11 = private unnamed_addr constant [13 x i8] c"InvalidValue\00", align 1

; Function Attrs: nounwind uwtable
define internal ptr @enum_name(ptr noundef %0, i64 noundef %1, i32 noundef %2) #0 {
  %4 = alloca ptr, align 8
  %5 = alloca ptr, align 8
  %6 = alloca i64, align 8
  %7 = alloca i32, align 4
  %8 = alloca i64, align 8
  %9 = alloca i32, align 4
  store ptr %0, ptr %5, align 8, !tbaa !8
  store i64 %1, ptr %6, align 8, !tbaa !10
  store i32 %2, ptr %7, align 4, !tbaa !4
  call void @llvm.lifetime.start.p0(i64 8, ptr %8) #7
  store i64 0, ptr %8, align 8, !tbaa !10
  br label %10

10:                                               ; preds = %29, %3
  %11 = load i64, ptr %8, align 8, !tbaa !10
  %12 = load i64, ptr %6, align 8, !tbaa !10
  %13 = icmp ult i64 %11, %12
  br i1 %13, label %14, label %32

14:                                               ; preds = %10
  %15 = load ptr, ptr %5, align 8, !tbaa !8
  %16 = load i64, ptr %8, align 8, !tbaa !10
  %17 = getelementptr inbounds nuw %struct.test_enum, ptr %15, i64 %16
  %18 = getelementptr inbounds nuw %struct.test_enum, ptr %17, i32 0, i32 1
  %19 = load i32, ptr %18, align 8, !tbaa !12
  %20 = load i32, ptr %7, align 4, !tbaa !4
  %21 = icmp eq i32 %19, %20
  br i1 %21, label %22, label %28

22:                                               ; preds = %14
  %23 = load ptr, ptr %5, align 8, !tbaa !8
  %24 = load i64, ptr %8, align 8, !tbaa !10
  %25 = getelementptr inbounds nuw %struct.test_enum, ptr %23, i64 %24
  %26 = getelementptr inbounds nuw %struct.test_enum, ptr %25, i32 0, i32 0
  %27 = load ptr, ptr %26, align 8, !tbaa !15
  store ptr %27, ptr %4, align 8
  store i32 1, ptr %9, align 4
  br label %33

28:                                               ; preds = %14
  br label %29

29:                                               ; preds = %28
  %30 = load i64, ptr %8, align 8, !tbaa !10
  %31 = add i64 %30, 1
  store i64 %31, ptr %8, align 8, !tbaa !10
  br label %10, !llvm.loop !16

32:                                               ; preds = %10
  store ptr @.str.11, ptr %4, align 8
  store i32 1, ptr %9, align 4
  br label %33

33:                                               ; preds = %32, %22
  call void @llvm.lifetime.end.p0(i64 8, ptr %8) #7
  %34 = load ptr, ptr %4, align 8
  ret ptr %34
}

; Function Attrs: nounwind uwtable
define dso_local ptr @ssl_servername_callback_name(i32 noundef %0) #0 {
  %2 = alloca i32, align 4
  store i32 %0, ptr %2, align 4, !tbaa !4
  %3 = load i32, ptr %2, align 4, !tbaa !4
  %4 = call ptr @enum_name(ptr noundef @ssl_servername_callbacks, i64 noundef 6, i32 noundef %3)
  ret ptr %4
}